target datalayout = "e-m:e-p270:32:32-p271:32:32-p272:64:64-i64:64-i128:128-f80:128-n8:16:32:64-S128"
target triple = "x86_64-pc-linux-gnu"

%struct.H5P_enc_iter_ud_t = type { i8, ptr, ptr }
%struct.H5P_genprop_t = type { ptr, i64, ptr, i32, i8, ptr, ptr, ptr, ptr, ptr, ptr, ptr, ptr, ptr }

@.str = private unnamed_addr constant [103 x i8] c"generated/home/dtcxzyw/WorkSpace/Projects/compilers/llvm-opt-benchmark/bench/hdf5/hdf5/src/H5Pencdec.c\00", align 1
@H5E_PLIST_g = external global i64, align 8
@__func__.H5P__encode_cb = private unnamed_addr constant [15 x i8] c"H5P__encode_cb\00", align 1
@H5E_CANTENCODE_g = external global i64, align 8
@.str.17 = private unnamed_addr constant [33 x i8] c"property encoding routine failed\00", align 1

; Function Attrs: nounwind uwtable
define internal i32 @H5P__encode_cb(ptr noundef %0, ptr noundef %1) #0 {
  %3 = alloca ptr, align 8
  %4 = alloca ptr, align 8
  %5 = alloca ptr, align 8
  %6 = alloca i32, align 4
  %7 = alloca i8, align 1
  %8 = alloca i64, align 8
  %9 = alloca i64, align 8
  store ptr %0, ptr %3, align 8
  store ptr %1, ptr %4, align 8
  %10 = load ptr, ptr %4, align 8
  store ptr %10, ptr %5, align 8
  store i32 0, ptr %6, align 4
  store i8 0, ptr %7, align 1
  %11 = load ptr, ptr %3, align 8
  %12 = getelementptr inbounds %struct.H5P_genprop_t, ptr %11, i32 0, i32 8
  %13 = load ptr, ptr %12, align 8
  %14 = icmp ne ptr %13, null
  br i1 %14, label %15, label %80

15:                                               ; preds = %2
  %16 = load ptr, ptr %3, align 8
  %17 = getelementptr inbounds %struct.H5P_genprop_t, ptr %16, i32 0, i32 0
  %18 = load ptr, ptr %17, align 8
  %19 = call i64 @strlen(ptr noundef %18) #5
  %20 = add i64 %19, 1
  store i64 %20, ptr %8, align 8
  %21 = load ptr, ptr %5, align 8
  %22 = getelementptr inbounds %struct.H5P_enc_iter_ud_t, ptr %21, i32 0, i32 0
  %23 = load i8, ptr %22, align 8
  %24 = trunc i8 %23 to i1
  br i1 %24, label %25, label %40

25:                                               ; preds = %15
  %26 = load ptr, ptr %5, align 8
  %27 = getelementptr inbounds %struct.H5P_enc_iter_ud_t, ptr %26, i32 0, i32 2
  %28 = load ptr, ptr %27, align 8
  %29 = load ptr, ptr %28, align 8
  %30 = load ptr, ptr %3, align 8
  %31 = getelementptr inbounds %struct.H5P_genprop_t, ptr %30, i32 0, i32 0
  %32 = load ptr, ptr %31, align 8
  %33 = call ptr @strcpy(ptr noundef %29, ptr noundef %32) #6
  %34 = load i64, ptr %8, align 8
  %35 = load ptr, ptr %5, align 8
  %36 = getelementptr inbounds %struct.H5P_enc_iter_ud_t, ptr %35, i32 0, i32 2
  %37 = load ptr, ptr %36, align 8
  %38 = load ptr, ptr %37, align 8
  %39 = getelementptr inbounds i8, ptr %38, i64 %34
  store ptr %39, ptr %37, align 8
  br label %40

40:                                               ; preds = %25, %15
  %41 = load i64, ptr %8, align 8
  %42 = load ptr, ptr %5, align 8
  %43 = getelementptr inbounds %struct.H5P_enc_iter_ud_t, ptr %42, i32 0, i32 1
  %44 = load ptr, ptr %43, align 8
  %45 = load i64, ptr %44, align 8
  %46 = add i64 %45, %41
  store i64 %46, ptr %44, align 8
  store i64 0, ptr %9, align 8
  %47 = load ptr, ptr %3, align 8
  %48 = getelementptr inbounds %struct.H5P_genprop_t, ptr %47, i32 0, i32 8
  %49 = load ptr, ptr %48, align 8
  %50 = load ptr, ptr %3, align 8
  %51 = getelementptr inbounds %struct.H5P_genprop_t, ptr %50, i32 0, i32 2
  %52 = load ptr, ptr %51, align 8
  %53 = load ptr, ptr %5, align 8
  %54 = getelementptr inbounds %struct.H5P_enc_iter_ud_t, ptr %53, i32 0, i32 2
  %55 = load ptr, ptr %54, align 8
  %56 = call i32 %49(ptr noundef %52, ptr noundef %55, ptr noundef %9)
  %57 = icmp slt i32 %56, 0
  br i1 %57, label %58, label %73

58:                                               ; preds = %40
  br label %59

59:                                               ; preds = %58
  br label %60

60:                                               ; preds = %59
  br label %61

61:                                               ; preds = %60
  %62 = load i64, ptr @H5E_PLIST_g, align 8
  %63 = load i64, ptr @H5E_CANTENCODE_g, align 8
  %64 = call i32 (ptr, ptr, i32, i64, i64, ptr, ...) @H5E_printf_stack(ptr noundef @.str, ptr noundef @__func__.H5P__encode_cb, i32 noundef 358, i64 noundef %62, i64 noundef %63, ptr noundef @.str.17)
  br label %65

65:                                               ; preds = %61
  store i8 1, ptr %7, align 1
  %66 = load i8, ptr %7, align 1
  %67 = trunc i8 %66 to i1
  %68 = zext i1 %67 to i8
  store i8 %68, ptr %7, align 1
  br label %69

69:                                               ; preds = %65
  br label %70

70:                                               ; preds = %69
  store i32 -1, ptr %6, align 4
  br label %81

71:                                               ; No predecessors!
  br label %72

72:                                               ; preds = %71
  br label %73

73:                                               ; preds = %72, %40
  %74 = load i64, ptr %9, align 8
  %75 = load ptr, ptr %5, align 8
  %76 = getelementptr inbounds %struct.H5P_enc_iter_ud_t, ptr %75, i32 0, i32 1
  %77 = load ptr, ptr %76, align 8
  %78 = load i64, ptr %77, align 8
  %79 = add i64 %78, %74
  store i64 %79, ptr %77, align 8
  br label %80

80:                                               ; preds = %73, %2
  br label %81

81:                                               ; preds = %80, %70
  %82 = load i32, ptr %6, align 4
  ret i32 %82
}