; Function Attrs: nounwind uwtable
define internal range(i32 -1, 1) i32 @H5P__encode_cb(ptr noundef readonly captures(none) %0, ptr noundef readonly captures(none) %1) #2 {
  %3 = alloca i64, align 8
  %4 = getelementptr inbounds nuw i8, ptr %0, i64 56
  %5 = load ptr, ptr %4, align 8
  %.not = icmp eq ptr %5, null
  br i1 %.not, label %41, label %6

6:                                                ; preds = %2
  %7 = load ptr, ptr %0, align 8
  %8 = tail call i64 @strlen(ptr noundef nonnull dereferenceable(1) %7) #9
  %9 = add i64 %8, 1
  %10 = load i8, ptr %1, align 8
  %11 = trunc i8 %10 to i1
  br i1 %11, label %12, label %20

12:                                               ; preds = %6
  %13 = getelementptr inbounds nuw i8, ptr %1, i64 16
  %14 = load ptr, ptr %13, align 8
  %15 = load ptr, ptr %14, align 8
  %16 = tail call ptr @strcpy(ptr noundef nonnull dereferenceable(1) %15, ptr noundef nonnull dereferenceable(1) %7) #8
  %17 = load ptr, ptr %13, align 8
  %18 = load ptr, ptr %17, align 8
  %19 = getelementptr inbounds i8, ptr %18, i64 %9
  store ptr %19, ptr %17, align 8
  br label %20

20:                                               ; preds = %12, %6
  %21 = getelementptr inbounds nuw i8, ptr %1, i64 8
  %22 = load ptr, ptr %21, align 8
  %23 = load i64, ptr %22, align 8
  %24 = add i64 %23, %9
  store i64 %24, ptr %22, align 8
  store i64 0, ptr %3, align 8
  %25 = load ptr, ptr %4, align 8
  %26 = getelementptr inbounds nuw i8, ptr %0, i64 16
  %27 = load ptr, ptr %26, align 8
  %28 = getelementptr inbounds nuw i8, ptr %1, i64 16
  %29 = load ptr, ptr %28, align 8
  %30 = call i32 %25(ptr noundef %27, ptr noundef %29, ptr noundef nonnull %3) #8
  %31 = icmp slt i32 %30, 0
  br i1 %31, label %32, label %36

32:                                               ; preds = %20
  %33 = load i64, ptr @H5E_PLIST_g, align 8
  %34 = load i64, ptr @H5E_CANTENCODE_g, align 8
  %35 = call i32 (ptr, ptr, i32, i64, i64, ptr, ...) @H5E_printf_stack(ptr noundef nonnull @.str, ptr noundef nonnull @__func__.H5P__encode_cb, i32 noundef 358, i64 noundef %33, i64 noundef %34, ptr noundef nonnull @.str.17) #8
  br label %41

36:                                               ; preds = %20
  %37 = load i64, ptr %3, align 8
  %38 = load ptr, ptr %21, align 8
  %39 = load i64, ptr %38, align 8
  %40 = add i64 %39, %37
  store i64 %40, ptr %38, align 8
  br label %41

41:                                               ; preds = %2, %36, %32
  %.0 = phi i32 [ -1, %32 ], [ 0, %36 ], [ 0, %2 ]
  ret i32 %.0
}